target datalayout = "e-m:e-p270:32:32-p271:32:32-p272:64:64-i64:64-i128:128-f80:128-n8:16:32:64-S128"
target triple = "x86_64-pc-linux-gnu"

@hf_gtpv2_mm_context_kasme = internal global i32 0, align 4
@hf_gtpv2_mm_context_rand = internal global i32 0, align 4
@hf_gtpv2_mm_context_xres_len = internal global i32 0, align 4
@hf_gtpv2_mm_context_xres = internal global i32 0, align 4
@hf_gtpv2_mm_context_autn_len = internal global i32 0, align 4
@hf_gtpv2_mm_context_autn = internal global i32 0, align 4
@ett_gtpv2_mm_context_auth_qua = internal global i32 0, align 4
@.str.1816 = private unnamed_addr constant [29 x i8] c"Authentication Quadruplet %u\00", align 1

; Function Attrs: null_pointer_is_valid sspstrong uwtable
define internal i32 @dissect_gtpv2_authentication_quadruplets(ptr noundef %0, ptr noundef %1, i32 noundef %2, i8 noundef zeroext %3) #1 {
  %5 = alloca ptr, align 8
  %6 = alloca ptr, align 8
  %7 = alloca i32, align 4
  %8 = alloca i8, align 1
  %9 = alloca ptr, align 8
  %10 = alloca i32, align 4
  %11 = alloca i32, align 4
  store ptr %0, ptr %5, align 8
  store ptr %1, ptr %6, align 8
  store i32 %2, ptr %7, align 4
  store i8 %3, ptr %8, align 1
  call void @llvm.lifetime.start.p0(i64 8, ptr %9) #11
  call void @llvm.lifetime.start.p0(i64 4, ptr %10) #11
  call void @llvm.lifetime.start.p0(i64 4, ptr %11) #11
  store i32 0, ptr %11, align 4
  br label %12

12:                                               ; preds = %71, %4
  %13 = load i32, ptr %11, align 4
  %14 = load i8, ptr %8, align 1
  %15 = zext i8 %14 to i32
  %16 = icmp slt i32 %13, %15
  br i1 %16, label %17, label %74

17:                                               ; preds = %12
  %18 = load ptr, ptr %6, align 8
  %19 = load ptr, ptr %5, align 8
  %20 = load i32, ptr %7, align 4
  %21 = load i32, ptr @ett_gtpv2_mm_context_auth_qua, align 4
  %22 = load i32, ptr %11, align 4
  %23 = add i32 %22, 1
  %24 = call ptr (ptr, ptr, i32, i32, i32, ptr, ptr, ...) @proto_tree_add_subtree_format(ptr noundef %18, ptr noundef %19, i32 noundef %20, i32 noundef 0, i32 noundef %21, ptr noundef null, ptr noundef @.str.1816, i32 noundef %23)
  store ptr %24, ptr %9, align 8
  %25 = load ptr, ptr %9, align 8
  %26 = load i32, ptr @hf_gtpv2_mm_context_rand, align 4
  %27 = load ptr, ptr %5, align 8
  %28 = load i32, ptr %7, align 4
  %29 = call ptr @proto_tree_add_item(ptr noundef %25, i32 noundef %26, ptr noundef %27, i32 noundef %28, i32 noundef 16, i32 noundef 0)
  %30 = load i32, ptr %7, align 4
  %31 = add i32 %30, 16
  store i32 %31, ptr %7, align 4
  %32 = load ptr, ptr %9, align 8
  %33 = load i32, ptr @hf_gtpv2_mm_context_xres_len, align 4
  %34 = load ptr, ptr %5, align 8
  %35 = load i32, ptr %7, align 4
  %36 = call ptr @proto_tree_add_item_ret_uint(ptr noundef %32, i32 noundef %33, ptr noundef %34, i32 noundef %35, i32 noundef 1, i32 noundef 0, ptr noundef %10)
  %37 = load i32, ptr %7, align 4
  %38 = add i32 %37, 1
  store i32 %38, ptr %7, align 4
  %39 = load ptr, ptr %9, align 8
  %40 = load i32, ptr @hf_gtpv2_mm_context_xres, align 4
  %41 = load ptr, ptr %5, align 8
  %42 = load i32, ptr %7, align 4
  %43 = load i32, ptr %10, align 4
  %44 = call ptr @proto_tree_add_item(ptr noundef %39, i32 noundef %40, ptr noundef %41, i32 noundef %42, i32 noundef %43, i32 noundef 0)
  %45 = load i32, ptr %10, align 4
  %46 = load i32, ptr %7, align 4
  %47 = add i32 %46, %45
  store i32 %47, ptr %7, align 4
  %48 = load ptr, ptr %9, align 8
  %49 = load i32, ptr @hf_gtpv2_mm_context_autn_len, align 4
  %50 = load ptr, ptr %5, align 8
  %51 = load i32, ptr %7, align 4
  %52 = call ptr @proto_tree_add_item_ret_uint(ptr noundef %48, i32 noundef %49, ptr noundef %50, i32 noundef %51, i32 noundef 1, i32 noundef 0, ptr noundef %10)
  %53 = load i32, ptr %7, align 4
  %54 = add i32 %53, 1
  store i32 %54, ptr %7, align 4
  %55 = load ptr, ptr %9, align 8
  %56 = load i32, ptr @hf_gtpv2_mm_context_autn, align 4
  %57 = load ptr, ptr %5, align 8
  %58 = load i32, ptr %7, align 4
  %59 = load i32, ptr %10, align 4
  %60 = call ptr @proto_tree_add_item(ptr noundef %55, i32 noundef %56, ptr noundef %57, i32 noundef %58, i32 noundef %59, i32 noundef 0)
  %61 = load i32, ptr %10, align 4
  %62 = load i32, ptr %7, align 4
  %63 = add i32 %62, %61
  store i32 %63, ptr %7, align 4
  %64 = load ptr, ptr %6, align 8
  %65 = load i32, ptr @hf_gtpv2_mm_context_kasme, align 4
  %66 = load ptr, ptr %5, align 8
  %67 = load i32, ptr %7, align 4
  %68 = call ptr @proto_tree_add_item(ptr noundef %64, i32 noundef %65, ptr noundef %66, i32 noundef %67, i32 noundef 32, i32 noundef 0)
  %69 = load i32, ptr %7, align 4
  %70 = add i32 %69, 32
  store i32 %70, ptr %7, align 4
  br label %71

71:                                               ; preds = %17
  %72 = load i32, ptr %11, align 4
  %73 = add i32 %72, 1
  store i32 %73, ptr %11, align 4
  br label %12, !llvm.loop !28

74:                                               ; preds = %12
  %75 = load i32, ptr %7, align 4
  call void @llvm.lifetime.end.p0(i64 4, ptr %11) #11
  call void @llvm.lifetime.end.p0(i64 4, ptr %10) #11
  call void @llvm.lifetime.end.p0(i64 8, ptr %9) #11
  ret i32 %75
}