; Function Attrs: null_pointer_is_valid sspstrong uwtable
define internal fastcc noundef i32 @dissect_gtpv2_authentication_quadruplets(ptr noundef %0, ptr noundef %1, i32 noundef range(i32 35, 42) %2, i8 noundef zeroext range(i8 1, 8) %3) unnamed_addr #1 {
  %5 = alloca i32, align 4
  call void @llvm.lifetime.start.p0(i64 4, ptr nonnull %5) #12
  %6 = zext nneg i8 %3 to i32
  br label %7

7:                                                ; preds = %4, %7
  %.033 = phi i32 [ 0, %4 ], [ %9, %7 ]
  %.03132 = phi i32 [ %2, %4 ], [ %32, %7 ]
  %8 = load i32, ptr @ett_gtpv2_mm_context_auth_qua, align 4
  %9 = add nuw nsw i32 %.033, 1
  %10 = call ptr (ptr, ptr, i32, i32, i32, ptr, ptr, ...) @proto_tree_add_subtree_format(ptr noundef %1, ptr noundef %0, i32 noundef %.03132, i32 noundef 0, i32 noundef %8, ptr noundef null, ptr noundef nonnull @.str.1816, i32 noundef %9)
  %11 = load i32, ptr @hf_gtpv2_mm_context_rand, align 4
  %12 = call ptr @proto_tree_add_item(ptr noundef %10, i32 noundef %11, ptr noundef %0, i32 noundef %.03132, i32 noundef 16, i32 noundef 0)
  %13 = add i32 %.03132, 16
  %14 = load i32, ptr @hf_gtpv2_mm_context_xres_len, align 4
  %15 = call ptr @proto_tree_add_item_ret_uint(ptr noundef %10, i32 noundef %14, ptr noundef %0, i32 noundef %13, i32 noundef 1, i32 noundef 0, ptr noundef nonnull %5)
  %16 = add i32 %.03132, 17
  %17 = load i32, ptr @hf_gtpv2_mm_context_xres, align 4
  %18 = load i32, ptr %5, align 4
  %19 = call ptr @proto_tree_add_item(ptr noundef %10, i32 noundef %17, ptr noundef %0, i32 noundef %16, i32 noundef %18, i32 noundef 0)
  %20 = load i32, ptr %5, align 4
  %21 = add i32 %20, %16
  %22 = load i32, ptr @hf_gtpv2_mm_context_autn_len, align 4
  %23 = call ptr @proto_tree_add_item_ret_uint(ptr noundef %10, i32 noundef %22, ptr noundef %0, i32 noundef %21, i32 noundef 1, i32 noundef 0, ptr noundef nonnull %5)
  %24 = add i32 %21, 1
  %25 = load i32, ptr @hf_gtpv2_mm_context_autn, align 4
  %26 = load i32, ptr %5, align 4
  %27 = call ptr @proto_tree_add_item(ptr noundef %10, i32 noundef %25, ptr noundef %0, i32 noundef %24, i32 noundef %26, i32 noundef 0)
  %28 = load i32, ptr %5, align 4
  %29 = add i32 %28, %24
  %30 = load i32, ptr @hf_gtpv2_mm_context_kasme, align 4
  %31 = call ptr @proto_tree_add_item(ptr noundef %1, i32 noundef %30, ptr noundef %0, i32 noundef %29, i32 noundef 32, i32 noundef 0)
  %32 = add i32 %29, 32
  %exitcond.not = icmp eq i32 %9, %6
  br i1 %exitcond.not, label %33, label %7, !llvm.loop !28

33:                                               ; preds = %7
  call void @llvm.lifetime.end.p0(i64 4, ptr nonnull %5) #12
  ret i32 %32
}